target datalayout = "e-m:e-p270:32:32-p271:32:32-p272:64:64-i64:64-i128:128-f80:128-n8:16:32:64-S128"
target triple = "x86_64-pc-linux-gnu"

; Function Attrs: nounwind uwtable
define internal void @read_ayuv64le_A_c(ptr noundef %0, ptr noundef %1, ptr noundef %2, ptr noundef %3, i32 noundef %4, ptr noundef %5, ptr noundef %6) #2 {
  %8 = alloca ptr, align 8
  %9 = alloca ptr, align 8
  %10 = alloca ptr, align 8
  %11 = alloca ptr, align 8
  %12 = alloca i32, align 4
  %13 = alloca ptr, align 8
  %14 = alloca ptr, align 8
  %15 = alloca i32, align 4
  store ptr %0, ptr %8, align 8, !tbaa !34
  store ptr %1, ptr %9, align 8, !tbaa !34
  store ptr %2, ptr %10, align 8, !tbaa !34
  store ptr %3, ptr %11, align 8, !tbaa !34
  store i32 %4, ptr %12, align 4, !tbaa !30
  store ptr %5, ptr %13, align 8, !tbaa !35
  store ptr %6, ptr %14, align 8, !tbaa !31
  call void @llvm.lifetime.start.p0(i64 4, ptr %15) #9
  store i32 0, ptr %15, align 4, !tbaa !30
  br label %16

16:                                               ; preds = %32, %7
  %17 = load i32, ptr %15, align 4, !tbaa !30
  %18 = load i32, ptr %12, align 4, !tbaa !30
  %19 = icmp slt i32 %17, %18
  br i1 %19, label %20, label %35

20:                                               ; preds = %16
  %21 = load ptr, ptr %9, align 8, !tbaa !34
  %22 = load i32, ptr %15, align 4, !tbaa !30
  %23 = mul nsw i32 %22, 8
  %24 = sext i32 %23 to i64
  %25 = getelementptr inbounds i8, ptr %21, i64 %24
  %26 = load i16, ptr %25, align 1, !tbaa !36
  %27 = load ptr, ptr %8, align 8, !tbaa !34
  %28 = load i32, ptr %15, align 4, !tbaa !30
  %29 = mul nsw i32 %28, 2
  %30 = sext i32 %29 to i64
  %31 = getelementptr inbounds i8, ptr %27, i64 %30
  store i16 %26, ptr %31, align 1, !tbaa !36
  br label %32

32:                                               ; preds = %20
  %33 = load i32, ptr %15, align 4, !tbaa !30
  %34 = add nsw i32 %33, 1
  store i32 %34, ptr %15, align 4, !tbaa !30
  br label %16, !llvm.loop !123

35:                                               ; preds = %16
  call void @llvm.lifetime.end.p0(i64 4, ptr %15) #9
  ret void
}